target datalayout = "e-m:e-p270:32:32-p271:32:32-p272:64:64-i64:64-i128:128-f80:128-n8:16:32:64-S128"
target triple = "x86_64-pc-linux-gnu"

%"class.nlsat::ineq_atom" = type { %"class.nlsat::atom", i32, [0 x ptr] }
%"class.nlsat::atom" = type { i32, i32, i32, i32 }

; Function Attrs: mustprogress nounwind uwtable
define hidden noundef zeroext i1 @_ZNK5nlsat9ineq_atom7eq_procclEPKS0_S3_(ptr noundef nonnull align 1 dereferenceable(1) %0, ptr noundef %1, ptr noundef %2) #4 align 2 {
  %4 = alloca i1, align 1
  %5 = alloca ptr, align 8
  %6 = alloca ptr, align 8
  %7 = alloca ptr, align 8
  %8 = alloca i32, align 4
  %9 = alloca i32, align 4
  %10 = alloca i32, align 4
  store ptr %0, ptr %5, align 8, !tbaa !45
  store ptr %1, ptr %6, align 8, !tbaa !16
  store ptr %2, ptr %7, align 8, !tbaa !16
  %11 = load ptr, ptr %6, align 8, !tbaa !16
  %12 = getelementptr inbounds nuw %"class.nlsat::ineq_atom", ptr %11, i32 0, i32 1
  %13 = load i32, ptr %12, align 8, !tbaa !25
  %14 = load ptr, ptr %7, align 8, !tbaa !16
  %15 = getelementptr inbounds nuw %"class.nlsat::ineq_atom", ptr %14, i32 0, i32 1
  %16 = load i32, ptr %15, align 8, !tbaa !25
  %17 = icmp ne i32 %13, %16
  br i1 %17, label %26, label %18

18:                                               ; preds = %3
  %19 = load ptr, ptr %6, align 8, !tbaa !16
  %20 = getelementptr inbounds nuw %"class.nlsat::atom", ptr %19, i32 0, i32 0
  %21 = load i32, ptr %20, align 8, !tbaa !34
  %22 = load ptr, ptr %7, align 8, !tbaa !16
  %23 = getelementptr inbounds nuw %"class.nlsat::atom", ptr %22, i32 0, i32 0
  %24 = load i32, ptr %23, align 8, !tbaa !34
  %25 = icmp ne i32 %21, %24
  br i1 %25, label %26, label %27

26:                                               ; preds = %18, %3
  store i1 false, ptr %4, align 1
  br label %59

27:                                               ; preds = %18
  call void @llvm.lifetime.start.p0(i64 4, ptr %8) #3
  %28 = load ptr, ptr %6, align 8, !tbaa !16
  %29 = getelementptr inbounds nuw %"class.nlsat::ineq_atom", ptr %28, i32 0, i32 1
  %30 = load i32, ptr %29, align 8, !tbaa !25
  store i32 %30, ptr %8, align 4, !tbaa !8
  call void @llvm.lifetime.start.p0(i64 4, ptr %9) #3
  store i32 0, ptr %9, align 4, !tbaa !8
  br label %31

31:                                               ; preds = %52, %27
  %32 = load i32, ptr %9, align 4, !tbaa !8
  %33 = load i32, ptr %8, align 4, !tbaa !8
  %34 = icmp ult i32 %32, %33
  br i1 %34, label %36, label %35

35:                                               ; preds = %31
  store i32 2, ptr %10, align 4
  br label %55

36:                                               ; preds = %31
  %37 = load ptr, ptr %6, align 8, !tbaa !16
  %38 = getelementptr inbounds nuw %"class.nlsat::ineq_atom", ptr %37, i32 0, i32 2
  %39 = load i32, ptr %9, align 4, !tbaa !8
  %40 = zext i32 %39 to i64
  %41 = getelementptr inbounds nuw [0 x ptr], ptr %38, i64 0, i64 %40
  %42 = load ptr, ptr %41, align 8, !tbaa !28
  %43 = load ptr, ptr %7, align 8, !tbaa !16
  %44 = getelementptr inbounds nuw %"class.nlsat::ineq_atom", ptr %43, i32 0, i32 2
  %45 = load i32, ptr %9, align 4, !tbaa !8
  %46 = zext i32 %45 to i64
  %47 = getelementptr inbounds nuw [0 x ptr], ptr %44, i64 0, i64 %46
  %48 = load ptr, ptr %47, align 8, !tbaa !28
  %49 = icmp ne ptr %42, %48
  br i1 %49, label %50, label %51

50:                                               ; preds = %36
  store i1 false, ptr %4, align 1
  store i32 1, ptr %10, align 4
  br label %55

51:                                               ; preds = %36
  br label %52

52:                                               ; preds = %51
  %53 = load i32, ptr %9, align 4, !tbaa !8
  %54 = add i32 %53, 1
  store i32 %54, ptr %9, align 4, !tbaa !8
  br label %31, !llvm.loop !47

55:                                               ; preds = %50, %35
  call void @llvm.lifetime.end.p0(i64 4, ptr %9) #3
  %56 = load i32, ptr %10, align 4
  switch i32 %56, label %58 [
    i32 2, label %57
  ]

57:                                               ; preds = %55
  store i1 true, ptr %4, align 1
  store i32 1, ptr %10, align 4
  br label %58

58:                                               ; preds = %57, %55
  call void @llvm.lifetime.end.p0(i64 4, ptr %8) #3
  br label %59

59:                                               ; preds = %58, %26
  %60 = load i1, ptr %4, align 1
  ret i1 %60
}