; Function Attrs: mustprogress nofree norecurse nosync nounwind willreturn memory(argmem: read) uwtable
define hidden noundef zeroext i1 @_ZNK5nlsat9ineq_atom7eq_procclEPKS0_S3_(ptr noundef nonnull readnone align 1 captures(none) dereferenceable(1) %0, ptr noundef readonly captures(none) %1, ptr noundef readonly captures(none) %2) local_unnamed_addr #6 align 2 {
  %4 = getelementptr inbounds nuw i8, ptr %1, i64 16
  %5 = load i32, ptr %4, align 8, !tbaa !12
  %6 = getelementptr inbounds nuw i8, ptr %2, i64 16
  %7 = load i32, ptr %6, align 8, !tbaa !12
  %.not = icmp eq i32 %5, %7
  br i1 %.not, label %8, label %.critedge

8:                                                ; preds = %3
  %9 = load i32, ptr %1, align 8, !tbaa !3
  %10 = load i32, ptr %2, align 8, !tbaa !3
  %.not16 = icmp eq i32 %9, %10
  br i1 %.not16, label %.preheader, label %.critedge

.preheader:                                       ; preds = %8
  %11 = getelementptr inbounds nuw i8, ptr %1, i64 24
  %.not18.not19.not = icmp eq i32 %5, 0
  br i1 %.not18.not19.not, label %.critedge, label %.lr.ph

.lr.ph:                                           ; preds = %.preheader
  %12 = getelementptr inbounds nuw i8, ptr %2, i64 24
  %wide.trip.count = zext i32 %5 to i64
  br label %13

13:                                               ; preds = %13, %.lr.ph
  %indvars.iv = phi i64 [ 0, %.lr.ph ], [ %indvars.iv.next, %13 ]
  %14 = getelementptr inbounds nuw [0 x ptr], ptr %11, i64 0, i64 %indvars.iv
  %15 = load ptr, ptr %14, align 8, !tbaa !14
  %16 = getelementptr inbounds nuw [0 x ptr], ptr %12, i64 0, i64 %indvars.iv
  %17 = load ptr, ptr %16, align 8, !tbaa !14
  %.not17 = icmp eq ptr %15, %17
  %indvars.iv.next = add nuw nsw i64 %indvars.iv, 1
  %exitcond.not = icmp ne i64 %indvars.iv.next, %wide.trip.count
  %or.cond.not = select i1 %.not17, i1 %exitcond.not, i1 false
  br i1 %or.cond.not, label %13, label %.critedge, !llvm.loop !24

.critedge:                                        ; preds = %13, %.preheader, %3, %8
  %.014 = phi i1 [ false, %8 ], [ false, %3 ], [ true, %.preheader ], [ %.not17, %13 ]
  ret i1 %.014
}